target datalayout = "e-m:e-p270:32:32-p271:32:32-p272:64:64-i64:64-i128:128-f80:128-n8:16:32:64-S128"
target triple = "x86_64-pc-linux-gnu"

; Function Attrs: alwaysinline nounwind willreturn memory(none) uwtable
define internal zeroext i8 @av_clip_uint8_c(i32 noundef %0) #8 {
  %2 = alloca i8, align 1
  %3 = alloca i32, align 4
  store i32 %0, ptr %3, align 4, !tbaa !11
  %4 = load i32, ptr %3, align 4, !tbaa !11
  %5 = and i32 %4, -256
  %6 = icmp ne i32 %5, 0
  br i1 %6, label %7, label %12

7:                                                ; preds = %1
  %8 = load i32, ptr %3, align 4, !tbaa !11
  %9 = xor i32 %8, -1
  %10 = ashr i32 %9, 31
  %11 = trunc i32 %10 to i8
  store i8 %11, ptr %2, align 1
  br label %15

12:                                               ; preds = %1
  %13 = load i32, ptr %3, align 4, !tbaa !11
  %14 = trunc i32 %13 to i8
  store i8 %14, ptr %2, align 1
  br label %15

15:                                               ; preds = %12, %7
  %16 = load i8, ptr %2, align 1
  ret i8 %16
}

; Function Attrs: nounwind uwtable
define internal void @filter_scharr(ptr noundef %0, i32 noundef %1, float noundef %2, float noundef %3, ptr noundef %4, ptr noundef %5, i32 noundef %6, i32 noundef %7, i32 noundef %8, i32 noundef %9, i32 noundef %10) #0 {
  %12 = alloca ptr, align 8
  %13 = alloca i32, align 4
  %14 = alloca float, align 4
  %15 = alloca float, align 4
  %16 = alloca ptr, align 8
  %17 = alloca ptr, align 8
  %18 = alloca i32, align 4
  %19 = alloca i32, align 4
  %20 = alloca i32, align 4
  %21 = alloca i32, align 4
  %22 = alloca i32, align 4
  %23 = alloca ptr, align 8
  %24 = alloca ptr, align 8
  %25 = alloca ptr, align 8
  %26 = alloca ptr, align 8
  %27 = alloca ptr, align 8
  %28 = alloca ptr, align 8
  %29 = alloca ptr, align 8
  %30 = alloca ptr, align 8
  %31 = alloca i32, align 4
  %32 = alloca float, align 4
  %33 = alloca float, align 4
  store ptr %0, ptr %12, align 8, !tbaa !9
  store i32 %1, ptr %13, align 4, !tbaa !11
  store float %2, ptr %14, align 4, !tbaa !52
  store float %3, ptr %15, align 4, !tbaa !52
  store ptr %4, ptr %16, align 8, !tbaa !53
  store ptr %5, ptr %17, align 8, !tbaa !89
  store i32 %6, ptr %18, align 4, !tbaa !11
  store i32 %7, ptr %19, align 4, !tbaa !11
  store i32 %8, ptr %20, align 4, !tbaa !11
  store i32 %9, ptr %21, align 4, !tbaa !11
  store i32 %10, ptr %22, align 4, !tbaa !11
  call void @llvm.lifetime.start.p0(i64 8, ptr %23) #10
  %34 = load ptr, ptr %17, align 8, !tbaa !89
  %35 = getelementptr inbounds ptr, ptr %34, i64 0
  %36 = load ptr, ptr %35, align 8, !tbaa !9
  store ptr %36, ptr %23, align 8, !tbaa !9
  call void @llvm.lifetime.start.p0(i64 8, ptr %24) #10
  %37 = load ptr, ptr %17, align 8, !tbaa !89
  %38 = getelementptr inbounds ptr, ptr %37, i64 1
  %39 = load ptr, ptr %38, align 8, !tbaa !9
  store ptr %39, ptr %24, align 8, !tbaa !9
  call void @llvm.lifetime.start.p0(i64 8, ptr %25) #10
  %40 = load ptr, ptr %17, align 8, !tbaa !89
  %41 = getelementptr inbounds ptr, ptr %40, i64 2
  %42 = load ptr, ptr %41, align 8, !tbaa !9
  store ptr %42, ptr %25, align 8, !tbaa !9
  call void @llvm.lifetime.start.p0(i64 8, ptr %26) #10
  %43 = load ptr, ptr %17, align 8, !tbaa !89
  %44 = getelementptr inbounds ptr, ptr %43, i64 3
  %45 = load ptr, ptr %44, align 8, !tbaa !9
  store ptr %45, ptr %26, align 8, !tbaa !9
  call void @llvm.lifetime.start.p0(i64 8, ptr %27) #10
  %46 = load ptr, ptr %17, align 8, !tbaa !89
  %47 = getelementptr inbounds ptr, ptr %46, i64 5
  %48 = load ptr, ptr %47, align 8, !tbaa !9
  store ptr %48, ptr %27, align 8, !tbaa !9
  call void @llvm.lifetime.start.p0(i64 8, ptr %28) #10
  %49 = load ptr, ptr %17, align 8, !tbaa !89
  %50 = getelementptr inbounds ptr, ptr %49, i64 6
  %51 = load ptr, ptr %50, align 8, !tbaa !9
  store ptr %51, ptr %28, align 8, !tbaa !9
  call void @llvm.lifetime.start.p0(i64 8, ptr %29) #10
  %52 = load ptr, ptr %17, align 8, !tbaa !89
  %53 = getelementptr inbounds ptr, ptr %52, i64 7
  %54 = load ptr, ptr %53, align 8, !tbaa !9
  store ptr %54, ptr %29, align 8, !tbaa !9
  call void @llvm.lifetime.start.p0(i64 8, ptr %30) #10
  %55 = load ptr, ptr %17, align 8, !tbaa !89
  %56 = getelementptr inbounds ptr, ptr %55, i64 8
  %57 = load ptr, ptr %56, align 8, !tbaa !9
  store ptr %57, ptr %30, align 8, !tbaa !9
  call void @llvm.lifetime.start.p0(i64 4, ptr %31) #10
  store i32 0, ptr %31, align 4, !tbaa !11
  br label %58

58:                                               ; preds = %179, %11
  %59 = load i32, ptr %31, align 4, !tbaa !11
  %60 = load i32, ptr %13, align 4, !tbaa !11
  %61 = icmp slt i32 %59, %60
  br i1 %61, label %62, label %182

62:                                               ; preds = %58
  call void @llvm.lifetime.start.p0(i64 4, ptr %32) #10
  %63 = load ptr, ptr %23, align 8, !tbaa !9
  %64 = load i32, ptr %31, align 4, !tbaa !11
  %65 = sext i32 %64 to i64
  %66 = getelementptr inbounds i8, ptr %63, i64 %65
  %67 = load i8, ptr %66, align 1, !tbaa !91
  %68 = zext i8 %67 to i32
  %69 = mul nsw i32 %68, -47
  %70 = load ptr, ptr %24, align 8, !tbaa !9
  %71 = load i32, ptr %31, align 4, !tbaa !11
  %72 = sext i32 %71 to i64
  %73 = getelementptr inbounds i8, ptr %70, i64 %72
  %74 = load i8, ptr %73, align 1, !tbaa !91
  %75 = zext i8 %74 to i32
  %76 = mul nsw i32 %75, -162
  %77 = add nsw i32 %69, %76
  %78 = load ptr, ptr %25, align 8, !tbaa !9
  %79 = load i32, ptr %31, align 4, !tbaa !11
  %80 = sext i32 %79 to i64
  %81 = getelementptr inbounds i8, ptr %78, i64 %80
  %82 = load i8, ptr %81, align 1, !tbaa !91
  %83 = zext i8 %82 to i32
  %84 = mul nsw i32 %83, -47
  %85 = add nsw i32 %77, %84
  %86 = load ptr, ptr %28, align 8, !tbaa !9
  %87 = load i32, ptr %31, align 4, !tbaa !11
  %88 = sext i32 %87 to i64
  %89 = getelementptr inbounds i8, ptr %86, i64 %88
  %90 = load i8, ptr %89, align 1, !tbaa !91
  %91 = zext i8 %90 to i32
  %92 = mul nsw i32 %91, 47
  %93 = add nsw i32 %85, %92
  %94 = load ptr, ptr %29, align 8, !tbaa !9
  %95 = load i32, ptr %31, align 4, !tbaa !11
  %96 = sext i32 %95 to i64
  %97 = getelementptr inbounds i8, ptr %94, i64 %96
  %98 = load i8, ptr %97, align 1, !tbaa !91
  %99 = zext i8 %98 to i32
  %100 = mul nsw i32 %99, 162
  %101 = add nsw i32 %93, %100
  %102 = load ptr, ptr %30, align 8, !tbaa !9
  %103 = load i32, ptr %31, align 4, !tbaa !11
  %104 = sext i32 %103 to i64
  %105 = getelementptr inbounds i8, ptr %102, i64 %104
  %106 = load i8, ptr %105, align 1, !tbaa !91
  %107 = zext i8 %106 to i32
  %108 = mul nsw i32 %107, 47
  %109 = add nsw i32 %101, %108
  %110 = sitofp i32 %109 to float
  store float %110, ptr %32, align 4, !tbaa !52
  call void @llvm.lifetime.start.p0(i64 4, ptr %33) #10
  %111 = load ptr, ptr %23, align 8, !tbaa !9
  %112 = load i32, ptr %31, align 4, !tbaa !11
  %113 = sext i32 %112 to i64
  %114 = getelementptr inbounds i8, ptr %111, i64 %113
  %115 = load i8, ptr %114, align 1, !tbaa !91
  %116 = zext i8 %115 to i32
  %117 = mul nsw i32 %116, -47
  %118 = load ptr, ptr %25, align 8, !tbaa !9
  %119 = load i32, ptr %31, align 4, !tbaa !11
  %120 = sext i32 %119 to i64
  %121 = getelementptr inbounds i8, ptr %118, i64 %120
  %122 = load i8, ptr %121, align 1, !tbaa !91
  %123 = zext i8 %122 to i32
  %124 = mul nsw i32 %123, 47
  %125 = add nsw i32 %117, %124
  %126 = load ptr, ptr %26, align 8, !tbaa !9
  %127 = load i32, ptr %31, align 4, !tbaa !11
  %128 = sext i32 %127 to i64
  %129 = getelementptr inbounds i8, ptr %126, i64 %128
  %130 = load i8, ptr %129, align 1, !tbaa !91
  %131 = zext i8 %130 to i32
  %132 = mul nsw i32 %131, -162
  %133 = add nsw i32 %125, %132
  %134 = load ptr, ptr %27, align 8, !tbaa !9
  %135 = load i32, ptr %31, align 4, !tbaa !11
  %136 = sext i32 %135 to i64
  %137 = getelementptr inbounds i8, ptr %134, i64 %136
  %138 = load i8, ptr %137, align 1, !tbaa !91
  %139 = zext i8 %138 to i32
  %140 = mul nsw i32 %139, 162
  %141 = add nsw i32 %133, %140
  %142 = load ptr, ptr %28, align 8, !tbaa !9
  %143 = load i32, ptr %31, align 4, !tbaa !11
  %144 = sext i32 %143 to i64
  %145 = getelementptr inbounds i8, ptr %142, i64 %144
  %146 = load i8, ptr %145, align 1, !tbaa !91
  %147 = zext i8 %146 to i32
  %148 = mul nsw i32 %147, -47
  %149 = add nsw i32 %141, %148
  %150 = load ptr, ptr %30, align 8, !tbaa !9
  %151 = load i32, ptr %31, align 4, !tbaa !11
  %152 = sext i32 %151 to i64
  %153 = getelementptr inbounds i8, ptr %150, i64 %152
  %154 = load i8, ptr %153, align 1, !tbaa !91
  %155 = zext i8 %154 to i32
  %156 = mul nsw i32 %155, 47
  %157 = add nsw i32 %149, %156
  %158 = sitofp i32 %157 to float
  store float %158, ptr %33, align 4, !tbaa !52
  %159 = load float, ptr %32, align 4, !tbaa !52
  %160 = fdiv nsz float %159, 2.560000e+02
  store float %160, ptr %32, align 4, !tbaa !52
  %161 = load float, ptr %33, align 4, !tbaa !52
  %162 = fdiv nsz float %161, 2.560000e+02
  store float %162, ptr %33, align 4, !tbaa !52
  %163 = load float, ptr %32, align 4, !tbaa !52
  %164 = load float, ptr %32, align 4, !tbaa !52
  %165 = load float, ptr %33, align 4, !tbaa !52
  %166 = load float, ptr %33, align 4, !tbaa !52
  %167 = fmul nsz float %165, %166
  %168 = call nsz float @llvm.fmuladd.f32(float %163, float %164, float %167)
  %169 = call nsz float @llvm.sqrt.f32(float %168)
  %170 = load float, ptr %14, align 4, !tbaa !52
  %171 = load float, ptr %15, align 4, !tbaa !52
  %172 = call nsz float @llvm.fmuladd.f32(float %169, float %170, float %171)
  %173 = fptosi float %172 to i32
  %174 = call zeroext i8 @av_clip_uint8_c(i32 noundef %173) #12
  %175 = load ptr, ptr %12, align 8, !tbaa !9
  %176 = load i32, ptr %31, align 4, !tbaa !11
  %177 = sext i32 %176 to i64
  %178 = getelementptr inbounds i8, ptr %175, i64 %177
  store i8 %174, ptr %178, align 1, !tbaa !91
  call void @llvm.lifetime.end.p0(i64 4, ptr %33) #10
  call void @llvm.lifetime.end.p0(i64 4, ptr %32) #10
  br label %179

179:                                              ; preds = %62
  %180 = load i32, ptr %31, align 4, !tbaa !11
  %181 = add nsw i32 %180, 1
  store i32 %181, ptr %31, align 4, !tbaa !11
  br label %58, !llvm.loop !113

182:                                              ; preds = %58
  call void @llvm.lifetime.end.p0(i64 4, ptr %31) #10
  call void @llvm.lifetime.end.p0(i64 8, ptr %30) #10
  call void @llvm.lifetime.end.p0(i64 8, ptr %29) #10
  call void @llvm.lifetime.end.p0(i64 8, ptr %28) #10
  call void @llvm.lifetime.end.p0(i64 8, ptr %27) #10
  call void @llvm.lifetime.end.p0(i64 8, ptr %26) #10
  call void @llvm.lifetime.end.p0(i64 8, ptr %25) #10
  call void @llvm.lifetime.end.p0(i64 8, ptr %24) #10
  call void @llvm.lifetime.end.p0(i64 8, ptr %23) #10
  ret void
}