; Function Attrs: nofree norecurse nosync nounwind memory(read, argmem: readwrite, inaccessiblemem: none) uwtable
define internal void @filter_scharr(ptr noundef writeonly captures(none) %0, i32 noundef %1, float noundef %2, float noundef %3, ptr readnone captures(none) %4, ptr noundef readonly captures(none) %5, i32 %6, i32 %7, i32 %8, i32 %9, i32 %10) #6 {
  %12 = load ptr, ptr %5, align 8, !tbaa !46
  %13 = getelementptr inbounds nuw i8, ptr %5, i64 8
  %14 = load ptr, ptr %13, align 8, !tbaa !46
  %15 = getelementptr inbounds nuw i8, ptr %5, i64 16
  %16 = load ptr, ptr %15, align 8, !tbaa !46
  %17 = getelementptr inbounds nuw i8, ptr %5, i64 24
  %18 = load ptr, ptr %17, align 8, !tbaa !46
  %19 = getelementptr inbounds nuw i8, ptr %5, i64 40
  %20 = load ptr, ptr %19, align 8, !tbaa !46
  %21 = getelementptr inbounds nuw i8, ptr %5, i64 48
  %22 = load ptr, ptr %21, align 8, !tbaa !46
  %23 = getelementptr inbounds nuw i8, ptr %5, i64 56
  %24 = load ptr, ptr %23, align 8, !tbaa !46
  %25 = getelementptr inbounds nuw i8, ptr %5, i64 64
  %26 = load ptr, ptr %25, align 8, !tbaa !46
  %27 = icmp sgt i32 %1, 0
  br i1 %27, label %.lr.ph.preheader, label %._crit_edge

.lr.ph.preheader:                                 ; preds = %11
  %wide.trip.count = zext nneg i32 %1 to i64
  br label %.lr.ph

.lr.ph:                                           ; preds = %.lr.ph.preheader, %.lr.ph
  %indvars.iv = phi i64 [ 0, %.lr.ph.preheader ], [ %indvars.iv.next, %.lr.ph ]
  %28 = getelementptr inbounds nuw i8, ptr %12, i64 %indvars.iv
  %29 = load i8, ptr %28, align 1, !tbaa !82
  %30 = zext i8 %29 to i32
  %31 = mul nsw i32 %30, -47
  %32 = getelementptr inbounds nuw i8, ptr %14, i64 %indvars.iv
  %33 = load i8, ptr %32, align 1, !tbaa !82
  %34 = zext i8 %33 to i32
  %35 = getelementptr inbounds nuw i8, ptr %16, i64 %indvars.iv
  %36 = load i8, ptr %35, align 1, !tbaa !82
  %37 = zext i8 %36 to i32
  %38 = getelementptr inbounds nuw i8, ptr %22, i64 %indvars.iv
  %39 = load i8, ptr %38, align 1, !tbaa !82
  %40 = zext i8 %39 to i32
  %41 = getelementptr inbounds nuw i8, ptr %24, i64 %indvars.iv
  %42 = load i8, ptr %41, align 1, !tbaa !82
  %43 = zext i8 %42 to i32
  %44 = getelementptr inbounds nuw i8, ptr %26, i64 %indvars.iv
  %45 = load i8, ptr %44, align 1, !tbaa !82
  %46 = zext i8 %45 to i32
  %47 = mul nuw nsw i32 %46, 47
  %reass.add = sub nsw i32 %40, %37
  %reass.mul = mul nsw i32 %reass.add, 47
  %reass.add45 = sub nsw i32 %43, %34
  %reass.mul46 = mul nsw i32 %reass.add45, 162
  %48 = add nsw i32 %47, %31
  %49 = add nsw i32 %48, %reass.mul
  %50 = add nsw i32 %49, %reass.mul46
  %51 = sitofp i32 %50 to float
  %52 = getelementptr inbounds nuw i8, ptr %18, i64 %indvars.iv
  %53 = load i8, ptr %52, align 1, !tbaa !82
  %54 = zext i8 %53 to i32
  %55 = getelementptr inbounds nuw i8, ptr %20, i64 %indvars.iv
  %56 = load i8, ptr %55, align 1, !tbaa !82
  %57 = zext i8 %56 to i32
  %reass.add48 = sub nsw i32 %57, %54
  %reass.mul49 = mul nsw i32 %reass.add48, 162
  %reass.add51 = sub nsw i32 %37, %40
  %reass.mul52 = mul nsw i32 %reass.add51, 47
  %58 = add nsw i32 %48, %reass.mul52
  %59 = add nsw i32 %58, %reass.mul49
  %60 = sitofp i32 %59 to float
  %61 = fmul nsz float %51, 3.906250e-03
  %62 = fmul nsz float %60, 3.906250e-03
  %63 = fmul nsz float %62, %62
  %64 = tail call nsz float @llvm.fmuladd.f32(float %61, float %61, float %63)
  %65 = tail call nsz float @llvm.sqrt.f32(float %64)
  %66 = tail call nsz float @llvm.fmuladd.f32(float %65, float %2, float %3)
  %67 = fptosi float %66 to i32
  %.not.i = icmp ult i32 %67, 256
  %isnotneg.i = icmp sgt i32 %67, -1
  %68 = sext i1 %isnotneg.i to i8
  %69 = trunc nuw i32 %67 to i8
  %.0.i = select i1 %.not.i, i8 %69, i8 %68
  %70 = getelementptr inbounds nuw i8, ptr %0, i64 %indvars.iv
  store i8 %.0.i, ptr %70, align 1, !tbaa !82
  %indvars.iv.next = add nuw nsw i64 %indvars.iv, 1
  %exitcond.not = icmp eq i64 %indvars.iv.next, %wide.trip.count
  br i1 %exitcond.not, label %._crit_edge, label %.lr.ph, !llvm.loop !102

._crit_edge:                                      ; preds = %.lr.ph, %11
  ret void
}